(dp0
S'q'
p1
L31043880227610763912280655520884170135339203928024849007848435049721249164246585923201082694738135696243733752663048987349648420066683738200013432849880610408878236147237782688716064200060856935623280170120810172822536260509449293506794620085416513273523356395165692362823466033202429404399315098246918981009075766622276230511698522884611247080933175053432455939980904110514092973800673839335913784467729794746346553787702212594751989963488880787157573505635362261217577745751672763986192459176760979778884842591749956058822196497848877430623618083168323989982862313221446904154874926727272192087662596353200465796977L
sS'p'
p2
L16523978345754092432262685559462780742330579705884623713573904102545153445053553635706650946432204022108764060769086583821512204530875620312616338455117300960166613818122529549733703668096604353462761935415480379506115478137032242715249026890158835886226262021873238992995346215340659784444226021837395891872561453564934296120505209568949807889122644668908403416956530066857559807900605141893110336261024950712902369339819359082050945201679662158157850644336262661312920540713035931400665848311066815647428044433767582323564441261712218013089741630448388604798245002534062646456739511368665051634926520113123196039551L
sS'd'
p3
L35315912459264682517368567931176815344970248048139190736649761726111453073956935030804513944485199705541175556424004943366259467103722057176136423104007360872536380052781473012971470593813364407951900090462373085921199841516658769464013157597147067624310634987549160136975458495441241004409406255760095777440433155134166599758327748696344904280696190953876949026743360237435776832241530745354493892340103523031808752537689559030725606735262988113335748596883426757699289629150722914322701700104887148696217855648937120103811205565600375387729169813709072831714405686181229451406321647378592509311432847047969057284755635199640498571110239396411839144013595433260030525017254257317619575650959377611786010149454255898170813711575664140226184900611958473229791436880829185975695934496196064894740997203284328466022158285748937361304865611561985387667146604164298850019082890094074187772631877473156807435814194948362746873459839602508233052737352217000043373402161870393010301109963385898097927415000980090189216419035088386091454174842145854262701075304151542210894243837801475436816614636048966327166930788437747112063843631728627871097629002336064406491084948675504610101053249147436633875381728263803193352830731352566484730521273L
s.