(dp0
S'q'
p1
L19259449159359855898537153669643988936815435385361428903746076412329530030415115787507694827387581244398585306586993439046869926259500940279355484632757431735433912741323098136564882516211836987646296256975816955572874477800230787341640229984206941002090400789209142973139439292063921257324596349232853929460642818577245552058724349981443869453334983397874452067377144228807244245782493417941520373105352962216293402918170982964008696160866918173489070491732559795738724843816556016576785822762026650001860930465287609869176676879467074225896959948007313240957067305957634344311595405573638042267860218060609160675067L
sS'p'
p2
L7136701473504331800336600987006211279440470284103604775558707486806829698334955109624397729346031435179754186591979925014363877866639008937005871440957521873494428181088046958846773009185840723063332110328632360497947411735267365706817260256563874784202272639397717831162581900840217518849546382540002273507589982914723938526429494445738547020642570579829868817452927415772528463111191642839258354811121653628293095655725732753144865733937779569364499532252604536783591342556537762833543380777130078311555052873382232759544310957678932790336366368278000237782389107377952546966387677551539112696062867672943754361589L
sS'd'
p3
L33502276134009180554661628604647251833680604893576607687568260391172809609981873393140673244539951907747223698766576352126131011232009399374587080408371591020693260140464435910086077779878585429308411839279842707517785394112386819366149224367134265874167264437626865374436247819022241529147867323742898001685060078175909955640805413384685223905331641812048599914546289138705320173274884385407734244680139484686520848482309611413280776607802759575602689905729622507802510934345832665721671708458903579390218559519186584754570938943980871614418238435810572492813873192043692339485099843696725991569695078577059852733051861983252522775062358129180422000763427855705277315149617962375729874808922991330828590641418090808456307953062897607047804120180224473770262018963174594859184381670534853694348837612252186945774069194130300634879552830460192030989459687796198098157900479295347333467705780390620808542174349721802925362964585636048050003395788228117723918974525714976951957242459088366736130551596608997788349249828809087447399427632558926935316016140904499792205970305577584690818367214900761261947461193647519171458880264994902633580584201332351946846613763589554832884352177550602525854390072964544067260109754533497711222110299L
s.