(dp0
S'e'
p1
L174299741372652429972055411616400596836845369941652668699924682080574348688855785121036222117227670790830963691026616022024735096594725099022225164165762610637745368728576179140059866034522391163701472265781003394421061169532773021365290742343099387401120458722750262947189273189653099917627361881041582276411L
sS'n'
p2
L137448939194485247996189035708661944912278272294190063551857161385877802785558719584549064137752872185902252792831244456718411735711890122074406859036332454685104641899491467406358012353358388741557704401822029925252900423803379146314461773905596059649119326020159732529961809785987837222229360314523570652892940745193557161353500838853270700149511427876148587249815802132940296167699482654143078386546667960023175191158313176833987566154389791163121176526654423835380472222851483629560718618631215667348035273699621121287312273690117072713880561555002147592895623617693204946313721208701502248349524708919645747688229108148056776165034962292838119612233864313628634272923963446533160683292250801164394838897473226069749064353598538405139349066242745481616591763086188088796173017191434011993039235140102077423453219877591734837176778869891378513722670985931770101113004262051806416110825941513244014985165194026155640810375712501680022387518262696811080717094663300582007373792500418751625813448013090438326011308390481456112361651243612209051310756268188596376271464896201305531782388629861523758358423854321329392863962692103798670453598526741363386077180744463819300432296279276152371950432652574300621013027936875366980854801463L
s.